target datalayout = "e-m:e-p270:32:32-p271:32:32-p272:64:64-i64:64-i128:128-f80:128-n8:16:32:64-S128"
target triple = "x86_64-pc-linux-gnu"

%struct.time_object = type { i64, %struct.vtm }
%struct.vtm = type { i64, i64, i64, i64, i64 }
%struct.RBasic = type { i64, i64 }
%struct.RTypedData = type { %struct.RBasic, ptr, i64, ptr }

@.str.1 = private unnamed_addr constant [10 x i8] c"../time.c\00", align 1

; Function Attrs: inlinehint nounwind sspstrong willreturn memory(none) uwtable
define internal zeroext i1 @RB_IMMEDIATE_P(i64 noundef %0) #5 {
  %2 = alloca i64, align 8
  store i64 %0, ptr %2, align 8, !tbaa !11
  %3 = load i64, ptr %2, align 8, !tbaa !11
  %4 = and i64 %3, 7
  %5 = icmp ne i64 %4, 0
  ret i1 %5
}

; Function Attrs: inlinehint nounwind sspstrong willreturn memory(none) uwtable
define internal zeroext i1 @RB_SPECIAL_CONST_P(i64 noundef %0) #5 {
  %2 = alloca i64, align 8
  store i64 %0, ptr %2, align 8, !tbaa !11
  %3 = load i64, ptr %2, align 8, !tbaa !11
  %4 = icmp eq i64 %3, 0
  br i1 %4, label %8, label %5

5:                                                ; preds = %1
  %6 = load i64, ptr %2, align 8, !tbaa !11
  %7 = call zeroext i1 @RB_IMMEDIATE_P(i64 noundef %6) #24
  br label %8

8:                                                ; preds = %5, %1
  %9 = phi i1 [ true, %1 ], [ %7, %5 ]
  ret i1 %9
}

; Function Attrs: inlinehint nounwind sspstrong uwtable
define internal i64 @rb_obj_written(i64 noundef %0, i64 noundef %1, i64 noundef %2, ptr noundef %3, i32 noundef %4) #4 {
  %6 = alloca i64, align 8
  %7 = alloca i64, align 8
  %8 = alloca i64, align 8
  %9 = alloca ptr, align 8
  %10 = alloca i32, align 4
  store i64 %0, ptr %6, align 8, !tbaa !11
  store i64 %1, ptr %7, align 8, !tbaa !11
  store i64 %2, ptr %8, align 8, !tbaa !11
  store ptr %3, ptr %9, align 8, !tbaa !25
  store i32 %4, ptr %10, align 4, !tbaa !20
  %11 = load i64, ptr %8, align 8, !tbaa !11
  %12 = call zeroext i1 @RB_SPECIAL_CONST_P(i64 noundef %11) #24
  br i1 %12, label %16, label %13

13:                                               ; preds = %5
  %14 = load i64, ptr %6, align 8, !tbaa !11
  %15 = load i64, ptr %8, align 8, !tbaa !11
  call void @rb_gc_writebarrier(i64 noundef %14, i64 noundef %15)
  br label %16

16:                                               ; preds = %13, %5
  %17 = load i64, ptr %6, align 8, !tbaa !11
  ret i64 %17
}

; Function Attrs: inlinehint nounwind sspstrong uwtable
define internal i64 @w2v(i64 noundef %0) #4 {
  %2 = alloca i64, align 8
  store i64 %0, ptr %2, align 8, !tbaa !11
  %3 = load i64, ptr %2, align 8, !tbaa !11
  ret i64 %3
}

; Function Attrs: inlinehint nounwind sspstrong willreturn memory(none) uwtable
define internal zeroext i1 @RB_FIXNUM_P(i64 noundef %0) #5 {
  %2 = alloca i64, align 8
  store i64 %0, ptr %2, align 8, !tbaa !11
  %3 = load i64, ptr %2, align 8, !tbaa !11
  %4 = and i64 %3, 1
  %5 = icmp ne i64 %4, 0
  ret i1 %5
}

; Function Attrs: inlinehint nounwind sspstrong uwtable
define internal zeroext i1 @RTYPEDDATA_EMBEDDED_P(i64 noundef %0) #4 {
  %2 = alloca i64, align 8
  store i64 %0, ptr %2, align 8, !tbaa !11
  %3 = load i64, ptr %2, align 8, !tbaa !11
  %4 = inttoptr i64 %3 to ptr
  %5 = getelementptr inbounds nuw %struct.RTypedData, ptr %4, i32 0, i32 2
  %6 = load i64, ptr %5, align 8, !tbaa !70
  %7 = and i64 %6, 2
  %8 = icmp ne i64 %7, 0
  ret i1 %8
}

; Function Attrs: nounwind sspstrong uwtable
define internal void @time_set_vtm(i64 noundef %0, ptr noundef %1, ptr noundef byval(%struct.vtm) align 8 %2) #0 {
  %4 = alloca i64, align 8
  %5 = alloca ptr, align 8
  store i64 %0, ptr %4, align 8, !tbaa !11
  store ptr %1, ptr %5, align 8, !tbaa !18
  %6 = load ptr, ptr %5, align 8, !tbaa !18
  %7 = getelementptr inbounds nuw %struct.time_object, ptr %6, i32 0, i32 1
  call void @llvm.memcpy.p0.p0.i64(ptr align 8 %7, ptr align 8 %2, i64 40, i1 false), !tbaa.struct !94
  %8 = load i64, ptr %4, align 8, !tbaa !11
  %9 = load ptr, ptr %5, align 8, !tbaa !18
  %10 = getelementptr inbounds nuw %struct.time_object, ptr %9, i32 0, i32 1
  %11 = getelementptr inbounds nuw %struct.vtm, ptr %10, i32 0, i32 0
  %12 = load i64, ptr %11, align 8, !tbaa !52
  %13 = call i64 @rb_obj_written(i64 noundef %8, i64 noundef 4, i64 noundef %12, ptr noundef @.str.1, i32 noundef 1823)
  %14 = load i64, ptr %4, align 8, !tbaa !11
  %15 = load ptr, ptr %5, align 8, !tbaa !18
  %16 = getelementptr inbounds nuw %struct.time_object, ptr %15, i32 0, i32 1
  %17 = getelementptr inbounds nuw %struct.vtm, ptr %16, i32 0, i32 1
  %18 = load i64, ptr %17, align 8, !tbaa !35
  %19 = call i64 @rb_obj_written(i64 noundef %14, i64 noundef 4, i64 noundef %18, ptr noundef @.str.1, i32 noundef 1824)
  %20 = load i64, ptr %4, align 8, !tbaa !11
  %21 = load ptr, ptr %5, align 8, !tbaa !18
  %22 = getelementptr inbounds nuw %struct.time_object, ptr %21, i32 0, i32 1
  %23 = getelementptr inbounds nuw %struct.vtm, ptr %22, i32 0, i32 2
  %24 = load i64, ptr %23, align 8, !tbaa !45
  %25 = call i64 @rb_obj_written(i64 noundef %20, i64 noundef 4, i64 noundef %24, ptr noundef @.str.1, i32 noundef 1825)
  %26 = load i64, ptr %4, align 8, !tbaa !11
  %27 = load ptr, ptr %5, align 8, !tbaa !18
  %28 = getelementptr inbounds nuw %struct.time_object, ptr %27, i32 0, i32 1
  %29 = getelementptr inbounds nuw %struct.vtm, ptr %28, i32 0, i32 3
  %30 = load i64, ptr %29, align 8, !tbaa !38
  %31 = call i64 @rb_obj_written(i64 noundef %26, i64 noundef 4, i64 noundef %30, ptr noundef @.str.1, i32 noundef 1826)
  ret void
}

; Function Attrs: nounwind sspstrong uwtable
define internal void @time_set_timew(i64 noundef %0, ptr noundef %1, i64 noundef %2) #0 {
  %4 = alloca i64, align 8
  %5 = alloca ptr, align 8
  %6 = alloca i64, align 8
  store i64 %0, ptr %4, align 8, !tbaa !11
  store ptr %1, ptr %5, align 8, !tbaa !18
  store i64 %2, ptr %6, align 8, !tbaa !11
  %7 = load i64, ptr %6, align 8, !tbaa !11
  %8 = load ptr, ptr %5, align 8, !tbaa !18
  %9 = getelementptr inbounds nuw %struct.time_object, ptr %8, i32 0, i32 0
  store i64 %7, ptr %9, align 8, !tbaa !33
  %10 = load i64, ptr %6, align 8, !tbaa !11
  %11 = call zeroext i1 @RB_FIXNUM_P(i64 noundef %10) #24
  br i1 %11, label %17, label %12

12:                                               ; preds = %3
  %13 = load i64, ptr %4, align 8, !tbaa !11
  %14 = load i64, ptr %6, align 8, !tbaa !11
  %15 = call i64 @w2v(i64 noundef %14)
  %16 = call i64 @rb_obj_written(i64 noundef %13, i64 noundef 4, i64 noundef %15, ptr noundef @.str.1, i32 noundef 1814)
  br label %17

17:                                               ; preds = %12, %3
  ret void
}

; Function Attrs: inlinehint nounwind sspstrong uwtable
define internal ptr @RTYPEDDATA_GET_DATA(i64 noundef %0) #4 {
  %2 = alloca i64, align 8
  %3 = alloca i64, align 8
  store i64 %0, ptr %2, align 8, !tbaa !11
  call void @llvm.lifetime.start.p0(i64 8, ptr %3) #22
  store i64 32, ptr %3, align 8, !tbaa !11
  %4 = load i64, ptr %2, align 8, !tbaa !11
  %5 = call zeroext i1 @RTYPEDDATA_EMBEDDED_P(i64 noundef %4)
  br i1 %5, label %6, label %10

6:                                                ; preds = %1
  %7 = load i64, ptr %2, align 8, !tbaa !11
  %8 = inttoptr i64 %7 to ptr
  %9 = getelementptr i8, ptr %8, i64 32
  br label %15

10:                                               ; preds = %1
  %11 = load i64, ptr %2, align 8, !tbaa !11
  %12 = inttoptr i64 %11 to ptr
  %13 = getelementptr inbounds nuw %struct.RTypedData, ptr %12, i32 0, i32 3
  %14 = load ptr, ptr %13, align 8, !tbaa !67
  br label %15

15:                                               ; preds = %10, %6
  %16 = phi ptr [ %9, %6 ], [ %14, %10 ]
  call void @llvm.lifetime.end.p0(i64 8, ptr %3) #22
  ret ptr %16
}

; Function Attrs: inlinehint nounwind sspstrong uwtable
define internal i32 @rb_check_arity(i32 noundef %0, i32 noundef %1, i32 noundef %2) #4 {
  %4 = alloca i32, align 4
  %5 = alloca i32, align 4
  %6 = alloca i32, align 4
  store i32 %0, ptr %4, align 4, !tbaa !20
  store i32 %1, ptr %5, align 4, !tbaa !20
  store i32 %2, ptr %6, align 4, !tbaa !20
  %7 = load i32, ptr %4, align 4, !tbaa !20
  %8 = load i32, ptr %5, align 4, !tbaa !20
  %9 = icmp slt i32 %7, %8
  br i1 %9, label %17, label %10

10:                                               ; preds = %3
  %11 = load i32, ptr %6, align 4, !tbaa !20
  %12 = icmp ne i32 %11, -1
  br i1 %12, label %13, label %21

13:                                               ; preds = %10
  %14 = load i32, ptr %4, align 4, !tbaa !20
  %15 = load i32, ptr %6, align 4, !tbaa !20
  %16 = icmp sgt i32 %14, %15
  br i1 %16, label %17, label %21

17:                                               ; preds = %13, %3
  %18 = load i32, ptr %4, align 4, !tbaa !20
  %19 = load i32, ptr %5, align 4, !tbaa !20
  %20 = load i32, ptr %6, align 4, !tbaa !20
  call void @rb_error_arity(i32 noundef %18, i32 noundef %19, i32 noundef %20) #23
  unreachable

21:                                               ; preds = %13, %10
  %22 = load i32, ptr %4, align 4, !tbaa !20
  ret i32 %22
}

; Function Attrs: nounwind sspstrong uwtable
define internal i64 @tm_initialize(i32 noundef %0, ptr noundef %1, i64 noundef %2) #0 {
  %4 = alloca i32, align 4
  %5 = alloca ptr, align 8
  %6 = alloca i64, align 8
  %7 = alloca %struct.vtm, align 8
  %8 = alloca i64, align 8
  %9 = alloca ptr, align 8
  store i32 %0, ptr %4, align 4, !tbaa !20
  store ptr %1, ptr %5, align 8, !tbaa !16
  store i64 %2, ptr %6, align 8, !tbaa !11
  call void @llvm.lifetime.start.p0(i64 40, ptr %7) #22
  call void @llvm.lifetime.start.p0(i64 8, ptr %8) #22
  %10 = load i32, ptr %4, align 4, !tbaa !20
  %11 = call i32 @rb_check_arity(i32 noundef %10, i32 noundef 1, i32 noundef 7)
  %12 = icmp sgt i32 %11, 6
  br i1 %12, label %13, label %14

13:                                               ; preds = %3
  store i32 6, ptr %4, align 4, !tbaa !20
  br label %14

14:                                               ; preds = %13, %3
  %15 = load i32, ptr %4, align 4, !tbaa !20
  %16 = load ptr, ptr %5, align 8, !tbaa !16
  call void @time_arg(i32 noundef %15, ptr noundef %16, ptr noundef %7)
  %17 = call i64 @timegmw(ptr noundef %7)
  store i64 %17, ptr %8, align 8, !tbaa !11
  call void @llvm.lifetime.start.p0(i64 8, ptr %9) #22
  %18 = load i64, ptr %6, align 8, !tbaa !11
  %19 = call ptr @RTYPEDDATA_GET_DATA(i64 noundef %18)
  store ptr %19, ptr %9, align 8, !tbaa !18
  %20 = load ptr, ptr %9, align 8, !tbaa !18
  %21 = getelementptr inbounds nuw %struct.time_object, ptr %20, i32 0, i32 1
  %22 = getelementptr inbounds nuw %struct.vtm, ptr %21, i32 0, i32 4
  %23 = load i64, ptr %22, align 8
  %24 = and i64 %23, -61572651155457
  %25 = or i64 %24, 8796093022208
  store i64 %25, ptr %22, align 8
  %26 = load i64, ptr %6, align 8, !tbaa !11
  %27 = load ptr, ptr %9, align 8, !tbaa !18
  %28 = load i64, ptr %8, align 8, !tbaa !11
  call void @time_set_timew(i64 noundef %26, ptr noundef %27, i64 noundef %28)
  %29 = load i64, ptr %6, align 8, !tbaa !11
  %30 = load ptr, ptr %9, align 8, !tbaa !18
  call void @time_set_vtm(i64 noundef %29, ptr noundef %30, ptr noundef byval(%struct.vtm) align 8 %7)
  %31 = load i64, ptr %6, align 8, !tbaa !11
  call void @llvm.lifetime.end.p0(i64 8, ptr %9) #22
  call void @llvm.lifetime.end.p0(i64 8, ptr %8) #22
  call void @llvm.lifetime.end.p0(i64 40, ptr %7) #22
  ret i64 %31
}