; Function Attrs: nounwind sspstrong uwtable
define internal noundef i64 @tm_initialize(i32 noundef %0, ptr noundef readonly captures(none) %1, i64 noundef returned %2) #1 {
  %4 = alloca %struct.vtm, align 8
  %5 = add i32 %0, -8
  %or.cond.i = icmp ult i32 %5, -7
  br i1 %or.cond.i, label %6, label %rb_check_arity.exit

6:                                                ; preds = %3
  tail call void @rb_error_arity(i32 noundef %0, i32 noundef 1, i32 noundef 7) #22
  unreachable

rb_check_arity.exit:                              ; preds = %3
  %spec.select = tail call i32 @llvm.umin.i32(i32 %0, i32 6)
  call fastcc void @time_arg(i32 noundef %spec.select, ptr noundef %1, ptr noundef %4)
  %7 = call fastcc i64 @timegmw(ptr noundef nonnull %4)
  %8 = inttoptr i64 %2 to ptr
  %9 = getelementptr inbounds nuw i8, ptr %8, i64 24
  %10 = load i64, ptr %9, align 8, !tbaa !20
  %11 = and i64 %10, 2
  %.not.i = icmp eq i64 %11, 0
  %12 = getelementptr i8, ptr %8, i64 32
  br i1 %.not.i, label %13, label %RTYPEDDATA_GET_DATA.exit

13:                                               ; preds = %rb_check_arity.exit
  %14 = load ptr, ptr %12, align 8, !tbaa !24
  br label %RTYPEDDATA_GET_DATA.exit

RTYPEDDATA_GET_DATA.exit:                         ; preds = %rb_check_arity.exit, %13
  %15 = phi ptr [ %14, %13 ], [ %12, %rb_check_arity.exit ]
  %16 = getelementptr inbounds nuw i8, ptr %15, i64 40
  %17 = load i64, ptr %16, align 8
  %18 = and i64 %17, -61572651155457
  %19 = or disjoint i64 %18, 8796093022208
  store i64 %19, ptr %16, align 8
  store i64 %7, ptr %15, align 8, !tbaa !25
  %20 = and i64 %7, 1
  %.not.i10 = icmp eq i64 %20, 0
  br i1 %.not.i10, label %21, label %time_set_timew.exit

21:                                               ; preds = %RTYPEDDATA_GET_DATA.exit
  %22 = icmp eq i64 %7, 0
  %23 = and i64 %7, 6
  %24 = icmp ne i64 %23, 0
  %25 = or i1 %22, %24
  br i1 %25, label %time_set_timew.exit, label %26

26:                                               ; preds = %21
  tail call void @rb_gc_writebarrier(i64 noundef %2, i64 noundef %7) #21
  br label %time_set_timew.exit

time_set_timew.exit:                              ; preds = %RTYPEDDATA_GET_DATA.exit, %21, %26
  %27 = getelementptr inbounds nuw i8, ptr %15, i64 8
  call void @llvm.memcpy.p0.p0.i64(ptr noundef nonnull align 8 dereferenceable(40) %27, ptr noundef nonnull readonly align 8 dereferenceable(40) %4, i64 40, i1 false), !tbaa.struct !122
  %28 = load i64, ptr %27, align 8, !tbaa !37
  %29 = icmp eq i64 %28, 0
  %30 = and i64 %28, 7
  %31 = icmp ne i64 %30, 0
  %32 = or i1 %29, %31
  br i1 %32, label %rb_obj_written.exit.i, label %33

33:                                               ; preds = %time_set_timew.exit
  tail call void @rb_gc_writebarrier(i64 noundef %2, i64 noundef %28) #21
  br label %rb_obj_written.exit.i

rb_obj_written.exit.i:                            ; preds = %33, %time_set_timew.exit
  %34 = getelementptr inbounds nuw i8, ptr %15, i64 16
  %35 = load i64, ptr %34, align 8, !tbaa !38
  %36 = icmp eq i64 %35, 0
  %37 = and i64 %35, 7
  %38 = icmp ne i64 %37, 0
  %39 = or i1 %36, %38
  br i1 %39, label %rb_obj_written.exit8.i, label %40

40:                                               ; preds = %rb_obj_written.exit.i
  tail call void @rb_gc_writebarrier(i64 noundef %2, i64 noundef %35) #21
  br label %rb_obj_written.exit8.i

rb_obj_written.exit8.i:                           ; preds = %40, %rb_obj_written.exit.i
  %41 = getelementptr inbounds nuw i8, ptr %15, i64 24
  %42 = load i64, ptr %41, align 8, !tbaa !39
  %43 = icmp eq i64 %42, 0
  %44 = and i64 %42, 7
  %45 = icmp ne i64 %44, 0
  %46 = or i1 %43, %45
  br i1 %46, label %rb_obj_written.exit9.i, label %47

47:                                               ; preds = %rb_obj_written.exit8.i
  tail call void @rb_gc_writebarrier(i64 noundef %2, i64 noundef %42) #21
  br label %rb_obj_written.exit9.i

rb_obj_written.exit9.i:                           ; preds = %47, %rb_obj_written.exit8.i
  %48 = getelementptr inbounds nuw i8, ptr %15, i64 32
  %49 = load i64, ptr %48, align 8, !tbaa !29
  %50 = icmp eq i64 %49, 0
  %51 = and i64 %49, 7
  %52 = icmp ne i64 %51, 0
  %53 = or i1 %50, %52
  br i1 %53, label %time_set_vtm.exit, label %54

54:                                               ; preds = %rb_obj_written.exit9.i
  tail call void @rb_gc_writebarrier(i64 noundef %2, i64 noundef %49) #21
  br label %time_set_vtm.exit

time_set_vtm.exit:                                ; preds = %rb_obj_written.exit9.i, %54
  ret i64 %2
}